target datalayout = "e-m:e-p270:32:32-p271:32:32-p272:64:64-i64:64-i128:128-f80:128-n8:16:32:64-S128"
target triple = "x86_64-unknown-linux-gnu"

; Function Attrs: mustprogress uwtable
define noundef ptr @_ZN8facebook5velox6memory15MemoryAllocator30allocateZeroFilledWithoutRetryEm(ptr noundef nonnull align 8 dereferenceable(880) %this, i64 noundef %bytes) unnamed_addr #4 align 2 {
entry:
  %this.addr = alloca ptr, align 8
  %bytes.addr = alloca i64, align 8
  %result = alloca ptr, align 8
  store ptr %this, ptr %this.addr, align 8
  store i64 %bytes, ptr %bytes.addr, align 8
  %this1 = load ptr, ptr %this.addr, align 8
  %0 = load i64, ptr %bytes.addr, align 8
  %call = call noundef ptr @_ZN8facebook5velox6memory15MemoryAllocator13allocateBytesEmt(ptr noundef nonnull align 8 dereferenceable(880) %this1, i64 noundef %0, i16 noundef zeroext 16)
  store ptr %call, ptr %result, align 8
  %1 = load ptr, ptr %result, align 8
  %cmp = icmp ne ptr %1, null
  br i1 %cmp, label %if.then, label %if.end

if.then:                                          ; preds = %entry
  %2 = load ptr, ptr %result, align 8
  %3 = load i64, ptr %bytes.addr, align 8
  call void @llvm.memset.p0.i64(ptr align 1 %2, i8 0, i64 %3, i1 false)
  br label %if.end

if.end:                                           ; preds = %if.then, %entry
  %4 = load ptr, ptr %result, align 8
  ret ptr %4
}