; Function Attrs: mustprogress uwtable
define noundef ptr @_ZN8facebook5velox6memory15MemoryAllocator30allocateZeroFilledWithoutRetryEm(ptr noundef nonnull align 8 dereferenceable(880) %this, i64 noundef %bytes) unnamed_addr #4 align 2 {
entry:
  %call = tail call noundef ptr @_ZN8facebook5velox6memory15MemoryAllocator13allocateBytesEmt(ptr noundef nonnull align 8 dereferenceable(880) %this, i64 noundef %bytes, i16 noundef zeroext 16)
  %cmp.not = icmp eq ptr %call, null
  br i1 %cmp.not, label %if.end, label %if.then

if.then:                                          ; preds = %entry
  tail call void @llvm.memset.p0.i64(ptr nonnull align 1 %call, i8 0, i64 %bytes, i1 false)
  br label %if.end

if.end:                                           ; preds = %if.then, %entry
  ret ptr %call
}